target datalayout = "e-m:e-p270:32:32-p271:32:32-p272:64:64-i64:64-i128:128-f80:128-n8:16:32:64-S128"
target triple = "x86_64-unknown-linux-gnu"

%"class.QuantLib::Date" = type { i64 }
%"class.boost::detail::shared_count" = type { ptr }
%"class.QuantLib::DayCounter" = type { %"class.boost::shared_ptr.6" }
%"class.boost::shared_ptr.6" = type { ptr, %"class.boost::detail::shared_count" }
%"class.QuantLib::MakeArithmeticAverageOIS" = type { %"class.QuantLib::Period", %"class.boost::shared_ptr.18", double, %"class.QuantLib::Period", i32, %"class.QuantLib::Date", %"class.QuantLib::Date", %"class.QuantLib::Calendar", i32, i32, i32, i8, i8, i8, double, double, i32, double, double, %"class.QuantLib::DayCounter", %"class.boost::shared_ptr.19" }
%"class.boost::shared_ptr.18" = type { ptr, %"class.boost::detail::shared_count" }
%"class.QuantLib::Period" = type { i32, i32 }
%"class.QuantLib::Calendar" = type { %"class.boost::shared_ptr.7" }
%"class.boost::shared_ptr.7" = type { ptr, %"class.boost::detail::shared_count" }
%"class.boost::shared_ptr.19" = type { ptr, %"class.boost::detail::shared_count" }

; Function Attrs: mustprogress nounwind uwtable
define noundef nonnull align 8 dereferenceable(168) ptr @_ZN8QuantLib24MakeArithmeticAverageOIS21withArithmeticAverageEddb(ptr noundef nonnull align 8 dereferenceable(168) %this, double noundef %meanReversionSpeed, double noundef %volatility, i1 noundef zeroext %byApprox) #1 align 2 {
entry:
  %this.addr = alloca ptr, align 8
  %meanReversionSpeed.addr = alloca double, align 8
  %volatility.addr = alloca double, align 8
  %byApprox.addr = alloca i8, align 1
  store ptr %this, ptr %this.addr, align 8, !tbaa !3
  store double %meanReversionSpeed, ptr %meanReversionSpeed.addr, align 8, !tbaa !24
  store double %volatility, ptr %volatility.addr, align 8, !tbaa !24
  %storedv = zext i1 %byApprox to i8
  store i8 %storedv, ptr %byApprox.addr, align 1, !tbaa !61
  %this1 = load ptr, ptr %this.addr, align 8
  %0 = load double, ptr %meanReversionSpeed.addr, align 8, !tbaa !24
  %mrs_ = getelementptr inbounds nuw %"class.QuantLib::MakeArithmeticAverageOIS", ptr %this1, i32 0, i32 14
  store double %0, ptr %mrs_, align 8, !tbaa !51
  %1 = load double, ptr %volatility.addr, align 8, !tbaa !24
  %vol_ = getelementptr inbounds nuw %"class.QuantLib::MakeArithmeticAverageOIS", ptr %this1, i32 0, i32 15
  store double %1, ptr %vol_, align 8, !tbaa !52
  %2 = load i8, ptr %byApprox.addr, align 1, !tbaa !61, !range !15, !noundef !16
  %loadedv = trunc i8 %2 to i1
  %byApprox_ = getelementptr inbounds nuw %"class.QuantLib::MakeArithmeticAverageOIS", ptr %this1, i32 0, i32 13
  %storedv2 = zext i1 %loadedv to i8
  store i8 %storedv2, ptr %byApprox_, align 2, !tbaa !50
  ret ptr %this1
}