; Function Attrs: mustprogress nofree norecurse nosync nounwind willreturn memory(argmem: write) uwtable
define noundef nonnull align 8 dereferenceable(168) ptr @_ZN8QuantLib24MakeArithmeticAverageOIS21withArithmeticAverageEddb(ptr noundef nonnull returned writeonly align 8 dereferenceable(168) %this, double noundef %meanReversionSpeed, double noundef %volatility, i1 noundef zeroext %byApprox) local_unnamed_addr #14 align 2 {
entry:
  %storedv = zext i1 %byApprox to i8
  %mrs_ = getelementptr inbounds nuw i8, ptr %this, i64 96
  store double %meanReversionSpeed, ptr %mrs_, align 8, !tbaa !68
  %vol_ = getelementptr inbounds nuw i8, ptr %this, i64 104
  store double %volatility, ptr %vol_, align 8, !tbaa !69
  %byApprox_ = getelementptr inbounds nuw i8, ptr %this, i64 94
  store i8 %storedv, ptr %byApprox_, align 2, !tbaa !67
  ret ptr %this
}